target datalayout = "e-m:e-p270:32:32-p271:32:32-p272:64:64-i64:64-i128:128-f80:128-n8:16:32:64-S128"
target triple = "x86_64-pc-linux-gnu"

@_ZL19_checkpoint_manager = internal global ptr null, align 8

; Function Attrs: mustprogress nounwind uwtable
define hidden noundef zeroext i1 @_ZN11JfrRecorder25create_checkpoint_managerEv() #1 align 2 {
  %1 = call noundef ptr @_ZN20JfrCheckpointManager6createEv()
  store ptr %1, ptr @_ZL19_checkpoint_manager, align 8
  %2 = load ptr, ptr @_ZL19_checkpoint_manager, align 8
  %3 = icmp ne ptr %2, null
  br i1 %3, label %4, label %7

4:                                                ; preds = %0
  %5 = load ptr, ptr @_ZL19_checkpoint_manager, align 8
  %6 = call noundef zeroext i1 @_ZN20JfrCheckpointManager16initialize_earlyEv(ptr noundef nonnull align 8 dereferenceable(32) %5)
  br label %7

7:                                                ; preds = %4, %0
  %8 = phi i1 [ false, %0 ], [ %6, %4 ]
  ret i1 %8
}

; Function Attrs: mustprogress nounwind uwtable
define hidden noundef zeroext i1 @_ZN11JfrRecorder29initialize_checkpoint_managerEv() #1 align 2 {
  %1 = alloca i1, align 1
  %2 = load ptr, ptr @_ZL19_checkpoint_manager, align 8
  %3 = icmp eq ptr %2, null
  br i1 %3, label %4, label %8

4:                                                ; preds = %0
  %5 = call noundef zeroext i1 @_ZN11JfrRecorder25create_checkpoint_managerEv()
  br i1 %5, label %7, label %6

6:                                                ; preds = %4
  store i1 false, ptr %1, align 1
  br label %12

7:                                                ; preds = %4
  br label %8

8:                                                ; preds = %7, %0
  %9 = load ptr, ptr @_ZL19_checkpoint_manager, align 8
  %10 = call noundef nonnull align 1 ptr @_ZN13JfrRepository11chunkwriterEv()
  %11 = call noundef zeroext i1 @_ZN20JfrCheckpointManager10initializeEP14JfrChunkWriter(ptr noundef nonnull align 8 dereferenceable(32) %9, ptr noundef %10)
  store i1 %11, ptr %1, align 1
  br label %12

12:                                               ; preds = %8, %6
  %13 = load i1, ptr %1, align 1
  ret i1 %13
}