; Function Attrs: mustprogress nounwind uwtable
define hidden noundef zeroext i1 @_ZN11JfrRecorder29initialize_checkpoint_managerEv() local_unnamed_addr #0 align 2 {
  %1 = load ptr, ptr @_ZL19_checkpoint_manager, align 8
  %2 = icmp eq ptr %1, null
  br i1 %2, label %3, label %6

3:                                                ; preds = %0
  %4 = tail call noundef ptr @_ZN20JfrCheckpointManager6createEv() #11
  store ptr %4, ptr @_ZL19_checkpoint_manager, align 8
  %.not.i = icmp eq ptr %4, null
  br i1 %.not.i, label %_ZN11JfrRecorder25create_checkpoint_managerEv.exit.thread, label %_ZN11JfrRecorder25create_checkpoint_managerEv.exit

_ZN11JfrRecorder25create_checkpoint_managerEv.exit: ; preds = %3
  %5 = tail call noundef zeroext i1 @_ZN20JfrCheckpointManager16initialize_earlyEv(ptr noundef nonnull align 8 dereferenceable(32) %4) #11
  br i1 %5, label %_ZN11JfrRecorder25create_checkpoint_managerEv.exit._crit_edge, label %_ZN11JfrRecorder25create_checkpoint_managerEv.exit.thread

_ZN11JfrRecorder25create_checkpoint_managerEv.exit._crit_edge: ; preds = %_ZN11JfrRecorder25create_checkpoint_managerEv.exit
  %.pre = load ptr, ptr @_ZL19_checkpoint_manager, align 8
  br label %6

6:                                                ; preds = %_ZN11JfrRecorder25create_checkpoint_managerEv.exit._crit_edge, %0
  %7 = phi ptr [ %.pre, %_ZN11JfrRecorder25create_checkpoint_managerEv.exit._crit_edge ], [ %1, %0 ]
  %8 = tail call noundef nonnull align 1 ptr @_ZN13JfrRepository11chunkwriterEv() #11
  %9 = tail call noundef zeroext i1 @_ZN20JfrCheckpointManager10initializeEP14JfrChunkWriter(ptr noundef nonnull align 8 dereferenceable(32) %7, ptr noundef nonnull %8) #11
  br label %_ZN11JfrRecorder25create_checkpoint_managerEv.exit.thread

_ZN11JfrRecorder25create_checkpoint_managerEv.exit.thread: ; preds = %3, %_ZN11JfrRecorder25create_checkpoint_managerEv.exit, %6
  %.0 = phi i1 [ %9, %6 ], [ false, %_ZN11JfrRecorder25create_checkpoint_managerEv.exit ], [ false, %3 ]
  ret i1 %.0
}